Certificate:
    Data:
        Version: 3 (0x2)
        Serial Number: 1 (0x1)
    Signature Algorithm: sha256WithRSAEncryption
        Issuer: CN=mme.ng4T.com, C=FR, ST=PACA, L=Aix, O=Eurecom, OU=CM
        Validity
            Not Before: Jun  6 16:21:59 2018 GMT
            Not After : Jun  6 16:21:59 2019 GMT
        Subject: C=FR, ST=PACA, O=Eurecom, OU=CM, CN=mme.ng4T.com
        Subject Public Key Info:
            Public Key Algorithm: rsaEncryption
                Public-Key: (1024 bit)
                Modulus:
                    00:a8:6e:30:70:55:56:ae:2f:4f:41:9b:a4:4f:9f:
                    fd:07:83:4d:fe:05:fa:82:fa:4d:eb:c2:a2:cb:82:
                    13:55:09:3e:ee:f4:2d:22:ee:a5:5d:d2:1d:83:a6:
                    45:84:99:ca:75:9f:b4:38:22:79:25:61:c3:b5:bc:
                    6b:51:f3:65:e6:3a:5b:cb:d0:79:c8:9c:ce:11:66:
                    fe:df:24:26:9d:0e:f5:94:37:b3:b5:1d:8e:c2:b3:
                    d6:36:b7:ab:40:a3:9d:d5:4e:d0:be:8a:29:43:fa:
                    20:24:91:49:4e:1d:b5:95:91:cf:a0:ce:9e:95:61:
                    83:a4:d9:7e:0d:1b:78:36:b9
                Exponent: 65537 (0x10001)
        X509v3 extensions:
            X509v3 Basic Constraints: 
                CA:FALSE
            Netscape Comment: 
                OpenSSL Generated Certificate
            X509v3 Subject Key Identifier: 
                C4:22:3F:17:6F:50:F1:27:FC:57:69:94:7B:76:07:32:D2:AD:91:DE
            X509v3 Authority Key Identifier: 
                keyid:75:A6:E0:00:E9:1F:D3:35:33:80:DF:08:FB:0B:5C:71:C9:7C:D4:C5

    Signature Algorithm: sha256WithRSAEncryption
         04:52:56:3f:06:24:92:81:92:c2:d0:01:c3:78:71:71:19:b4:
         90:b5:84:53:cf:2d:fe:42:8e:8f:04:fe:22:1b:b8:06:45:e1:
         ef:c3:5b:f0:13:04:88:43:fc:fc:7a:c7:d1:60:d4:bd:21:7d:
         c7:cc:91:4f:f6:e4:f6:d0:20:78:80:8a:52:5e:01:2c:3d:c2:
         35:3a:ad:64:04:41:96:70:9b:c7:84:81:8c:e5:76:ba:9b:4e:
         80:91:1e:cc:95:62:44:00:5c:e5:98:21:6e:5b:af:e8:2e:8d:
         32:d8:e8:55:83:c2:a0:c6:0a:fa:b3:4e:0c:96:36:64:86:51:
         26:eb
-----BEGIN CERTIFICATE-----
MIICozCCAgygAwIBAgIBATANBgkqhkiG9w0BAQsFADBgMRUwEwYDVQQDDAxtbWUu
bmc0VC5jb20xCzAJBgNVBAYTAkZSMQ0wCwYDVQQIDARQQUNBMQwwCgYDVQQHDANB
aXgxEDAOBgNVBAoMB0V1cmVjb20xCzAJBgNVBAsMAkNNMB4XDTE4MDYwNjE2MjE1
OVoXDTE5MDYwNjE2MjE1OVowUjELMAkGA1UEBhMCRlIxDTALBgNVBAgMBFBBQ0Ex
EDAOBgNVBAoMB0V1cmVjb20xCzAJBgNVBAsMAkNNMRUwEwYDVQQDDAxtbWUubmc0
VC5jb20wgZ8wDQYJKoZIhvcNAQEBBQADgY0AMIGJAoGBAKhuMHBVVq4vT0GbpE+f
/QeDTf4F+oL6TevCosuCE1UJPu70LSLupV3SHYOmRYSZynWftDgieSVhw7W8a1Hz
ZeY6W8vQeciczhFm/t8kJp0O9ZQ3s7UdjsKz1ja3q0CjndVO0L6KKUP6ICSRSU4d
tZWRz6DOnpVhg6TZfg0beDa5AgMBAAGjezB5MAkGA1UdEwQCMAAwLAYJYIZIAYb4
QgENBB8WHU9wZW5TU0wgR2VuZXJhdGVkIENlcnRpZmljYXRlMB0GA1UdDgQWBBTE
Ij8Xb1DxJ/xXaZR7dgcy0q2R3jAfBgNVHSMEGDAWgBR1puAA6R/TNTOA3wj7C1xx
yXzUxTANBgkqhkiG9w0BAQsFAAOBgQAEUlY/BiSSgZLC0AHDeHFxGbSQtYRTzy3+
Qo6PBP4iG7gGReHvw1vwEwSIQ/z8esfRYNS9IX3HzJFP9uT20CB4gIpSXgEsPcI1
Oq1kBEGWcJvHhIGM5Xa6m06AkR7MlWJEAFzlmCFuW6/oLo0y2OhVg8Kgxgr6s04M
ljZkhlEm6w==
-----END CERTIFICATE-----
